target datalayout = "e-m:e-p270:32:32-p271:32:32-p272:64:64-i64:64-i128:128-f80:128-n8:16:32:64-S128"
target triple = "x86_64-pc-linux-gnu"

%struct.AVCodecContext = type { ptr, i32, i32, ptr, i32, i32, ptr, ptr, ptr, i64, i32, i32, ptr, i32, %struct.AVRational, %struct.AVRational, %struct.AVRational, i32, i32, i32, i32, i32, %struct.AVRational, i32, i32, i32, i32, i32, i32, i32, i32, i32, i32, i32, ptr, ptr, i32, float, float, float, float, float, float, float, float, float, i32, i32, i32, i32, i32, i32, i32, i32, i32, i32, i32, i32, ptr, ptr, ptr, i32, i32, i32, i32, i32, i32, i32, i32, i32, i32, %struct.AVChannelLayout, i32, i32, i32, i32, i32, i32, i32, i32, ptr, i32, i32, i32, float, float, i32, i32, i32, i32, i32, ptr, i64, i64, float, float, i32, i32, ptr, ptr, i32, i32, i32, i32, i32, ptr, ptr, ptr, ptr, i32, i32, [8 x i64], i32, i32, i32, i32, i32, i32, i32, ptr, ptr, i32, i32, i32, i32, i32, i32, i32, i32, i32, i32, ptr, ptr, i32, i32, ptr, ptr, ptr, ptr, i32, i32, i64, i32, i32, i64, ptr, i64, ptr, i32, ptr, i32 }
%struct.AVRational = type { i32, i32 }
%struct.AVChannelLayout = type { i32, i32, %union.anon.0, ptr }
%union.anon.0 = type { i64 }
%struct.SRTContext = type { ptr, ptr, %struct.AVBPrint, [64 x i8], i32, i32 }
%struct.AVBPrint = type { ptr, i32, i32, i32, [1 x i8], [1000 x i8] }
%struct.AVSubtitle = type { i16, i32, i32, i32, ptr, i64 }
%struct.AVSubtitleRect = type { i32, i32, i32, i32, i32, [4 x ptr], [4 x i32], i32, i32, ptr, ptr }
%struct.ASSDialog = type { i32, i32, i32, i32, ptr, ptr, i32, i32, i32, ptr, ptr }

@.str.5 = private unnamed_addr constant [35 x i8] c"Only SUBTITLE_ASS type supported.\0A\00", align 1
@.str.6 = private unnamed_addr constant [33 x i8] c"Buffer too small for ASS event.\0A\00", align 1

; Function Attrs: inlinehint nounwind uwtable
define internal i32 @av_bprint_is_complete(ptr noundef %0) #4 {
  %2 = alloca ptr, align 8
  store ptr %0, ptr %2, align 8, !tbaa !66
  %3 = load ptr, ptr %2, align 8, !tbaa !66
  %4 = getelementptr inbounds nuw %struct.AVBPrint, ptr %3, i32 0, i32 1
  %5 = load i32, ptr %4, align 8, !tbaa !68
  %6 = load ptr, ptr %2, align 8, !tbaa !66
  %7 = getelementptr inbounds nuw %struct.AVBPrint, ptr %6, i32 0, i32 2
  %8 = load i32, ptr %7, align 4, !tbaa !69
  %9 = icmp ult i32 %5, %8
  %10 = zext i1 %9 to i32
  ret i32 %10
}

; Function Attrs: nounwind uwtable
define internal i32 @encode_frame(ptr noundef %0, ptr noundef %1, i32 noundef %2, ptr noundef %3, ptr noundef %4) #1 {
  %6 = alloca i32, align 4
  %7 = alloca ptr, align 8
  %8 = alloca ptr, align 8
  %9 = alloca i32, align 4
  %10 = alloca ptr, align 8
  %11 = alloca ptr, align 8
  %12 = alloca ptr, align 8
  %13 = alloca ptr, align 8
  %14 = alloca i32, align 4
  %15 = alloca ptr, align 8
  %16 = alloca i32, align 4
  store ptr %0, ptr %7, align 8, !tbaa !4
  store ptr %1, ptr %8, align 8, !tbaa !36
  store i32 %2, ptr %9, align 4, !tbaa !37
  store ptr %3, ptr %10, align 8, !tbaa !38
  store ptr %4, ptr %11, align 8, !tbaa !29
  call void @llvm.lifetime.start.p0(i64 8, ptr %12) #7
  %17 = load ptr, ptr %7, align 8, !tbaa !4
  %18 = getelementptr inbounds nuw %struct.AVCodecContext, ptr %17, i32 0, i32 6
  %19 = load ptr, ptr %18, align 8, !tbaa !9
  store ptr %19, ptr %12, align 8, !tbaa !29
  call void @llvm.lifetime.start.p0(i64 8, ptr %13) #7
  call void @llvm.lifetime.start.p0(i64 4, ptr %14) #7
  %20 = load ptr, ptr %12, align 8, !tbaa !29
  %21 = getelementptr inbounds nuw %struct.SRTContext, ptr %20, i32 0, i32 2
  %22 = load ptr, ptr %8, align 8, !tbaa !36
  %23 = load i32, ptr %9, align 4, !tbaa !37
  call void @av_bprint_init_for_buffer(ptr noundef %21, ptr noundef %22, i32 noundef %23)
  store i32 0, ptr %14, align 4, !tbaa !37
  br label %24

24:                                               ; preds = %83, %5
  %25 = load i32, ptr %14, align 4, !tbaa !37
  %26 = load ptr, ptr %10, align 8, !tbaa !38
  %27 = getelementptr inbounds nuw %struct.AVSubtitle, ptr %26, i32 0, i32 3
  %28 = load i32, ptr %27, align 4, !tbaa !40
  %29 = icmp ult i32 %25, %28
  br i1 %29, label %30, label %86

30:                                               ; preds = %24
  call void @llvm.lifetime.start.p0(i64 8, ptr %15) #7
  %31 = load ptr, ptr %10, align 8, !tbaa !38
  %32 = getelementptr inbounds nuw %struct.AVSubtitle, ptr %31, i32 0, i32 4
  %33 = load ptr, ptr %32, align 8, !tbaa !44
  %34 = load i32, ptr %14, align 4, !tbaa !37
  %35 = sext i32 %34 to i64
  %36 = getelementptr inbounds ptr, ptr %33, i64 %35
  %37 = load ptr, ptr %36, align 8, !tbaa !45
  %38 = getelementptr inbounds nuw %struct.AVSubtitleRect, ptr %37, i32 0, i32 10
  %39 = load ptr, ptr %38, align 8, !tbaa !47
  store ptr %39, ptr %15, align 8, !tbaa !36
  %40 = load ptr, ptr %10, align 8, !tbaa !38
  %41 = getelementptr inbounds nuw %struct.AVSubtitle, ptr %40, i32 0, i32 4
  %42 = load ptr, ptr %41, align 8, !tbaa !44
  %43 = load i32, ptr %14, align 4, !tbaa !37
  %44 = sext i32 %43 to i64
  %45 = getelementptr inbounds ptr, ptr %42, i64 %44
  %46 = load ptr, ptr %45, align 8, !tbaa !45
  %47 = getelementptr inbounds nuw %struct.AVSubtitleRect, ptr %46, i32 0, i32 8
  %48 = load i32, ptr %47, align 4, !tbaa !49
  %49 = icmp ne i32 %48, 3
  br i1 %49, label %50, label %52

50:                                               ; preds = %30
  %51 = load ptr, ptr %7, align 8, !tbaa !4
  call void (ptr, i32, ptr, ...) @av_log(ptr noundef %51, i32 noundef 16, ptr noundef @.str.5)
  store i32 -22, ptr %6, align 4
  store i32 1, ptr %16, align 4
  br label %80

52:                                               ; preds = %30
  %53 = load ptr, ptr %12, align 8, !tbaa !29
  %54 = getelementptr inbounds nuw %struct.SRTContext, ptr %53, i32 0, i32 1
  %55 = load ptr, ptr %54, align 8, !tbaa !35
  %56 = load ptr, ptr %15, align 8, !tbaa !36
  %57 = call ptr @ff_ass_split_dialog(ptr noundef %55, ptr noundef %56)
  store ptr %57, ptr %13, align 8, !tbaa !29
  %58 = load ptr, ptr %13, align 8, !tbaa !29
  %59 = icmp ne ptr %58, null
  br i1 %59, label %61, label %60

60:                                               ; preds = %52
  store i32 -12, ptr %6, align 4
  store i32 1, ptr %16, align 4
  br label %80

61:                                               ; preds = %52
  %62 = load ptr, ptr %12, align 8, !tbaa !29
  %63 = getelementptr inbounds nuw %struct.SRTContext, ptr %62, i32 0, i32 5
  store i32 0, ptr %63, align 4, !tbaa !50
  %64 = load ptr, ptr %7, align 8, !tbaa !4
  %65 = getelementptr inbounds nuw %struct.AVCodecContext, ptr %64, i32 0, i32 4
  %66 = load i32, ptr %65, align 8, !tbaa !51
  %67 = icmp eq i32 %66, 94225
  br i1 %67, label %68, label %73

68:                                               ; preds = %61
  %69 = load ptr, ptr %12, align 8, !tbaa !29
  %70 = load ptr, ptr %13, align 8, !tbaa !29
  %71 = getelementptr inbounds nuw %struct.ASSDialog, ptr %70, i32 0, i32 4
  %72 = load ptr, ptr %71, align 8, !tbaa !52
  call void @srt_style_apply(ptr noundef %69, ptr noundef %72)
  br label %73

73:                                               ; preds = %68, %61
  %74 = load ptr, ptr %11, align 8, !tbaa !29
  %75 = load ptr, ptr %12, align 8, !tbaa !29
  %76 = load ptr, ptr %13, align 8, !tbaa !29
  %77 = getelementptr inbounds nuw %struct.ASSDialog, ptr %76, i32 0, i32 10
  %78 = load ptr, ptr %77, align 8, !tbaa !54
  %79 = call i32 @ff_ass_split_override_codes(ptr noundef %74, ptr noundef %75, ptr noundef %78)
  call void @ff_ass_free_dialog(ptr noundef %13)
  store i32 0, ptr %16, align 4
  br label %80

80:                                               ; preds = %73, %60, %50
  call void @llvm.lifetime.end.p0(i64 8, ptr %15) #7
  %81 = load i32, ptr %16, align 4
  switch i32 %81, label %105 [
    i32 0, label %82
  ]

82:                                               ; preds = %80
  br label %83

83:                                               ; preds = %82
  %84 = load i32, ptr %14, align 4, !tbaa !37
  %85 = add nsw i32 %84, 1
  store i32 %85, ptr %14, align 4, !tbaa !37
  br label %24, !llvm.loop !55

86:                                               ; preds = %24
  %87 = load ptr, ptr %12, align 8, !tbaa !29
  %88 = getelementptr inbounds nuw %struct.SRTContext, ptr %87, i32 0, i32 2
  %89 = getelementptr inbounds nuw %struct.AVBPrint, ptr %88, i32 0, i32 1
  %90 = load i32, ptr %89, align 8, !tbaa !57
  %91 = icmp ne i32 %90, 0
  br i1 %91, label %93, label %92

92:                                               ; preds = %86
  store i32 0, ptr %6, align 4
  store i32 1, ptr %16, align 4
  br label %105

93:                                               ; preds = %86
  %94 = load ptr, ptr %12, align 8, !tbaa !29
  %95 = getelementptr inbounds nuw %struct.SRTContext, ptr %94, i32 0, i32 2
  %96 = call i32 @av_bprint_is_complete(ptr noundef %95)
  %97 = icmp ne i32 %96, 0
  br i1 %97, label %100, label %98

98:                                               ; preds = %93
  %99 = load ptr, ptr %7, align 8, !tbaa !4
  call void (ptr, i32, ptr, ...) @av_log(ptr noundef %99, i32 noundef 16, ptr noundef @.str.6)
  store i32 -1397118274, ptr %6, align 4
  store i32 1, ptr %16, align 4
  br label %105

100:                                              ; preds = %93
  %101 = load ptr, ptr %12, align 8, !tbaa !29
  %102 = getelementptr inbounds nuw %struct.SRTContext, ptr %101, i32 0, i32 2
  %103 = getelementptr inbounds nuw %struct.AVBPrint, ptr %102, i32 0, i32 1
  %104 = load i32, ptr %103, align 8, !tbaa !57
  store i32 %104, ptr %6, align 4
  store i32 1, ptr %16, align 4
  br label %105

105:                                              ; preds = %100, %98, %92, %80
  call void @llvm.lifetime.end.p0(i64 4, ptr %14) #7
  call void @llvm.lifetime.end.p0(i64 8, ptr %13) #7
  call void @llvm.lifetime.end.p0(i64 8, ptr %12) #7
  %106 = load i32, ptr %6, align 4
  ret i32 %106
}