; Function Attrs: nounwind uwtable
define internal fastcc i32 @encode_frame(ptr noundef %0, ptr noundef %1, i32 noundef %2, ptr noundef readonly captures(none) %3, ptr noundef %4) unnamed_addr #1 {
  %6 = alloca ptr, align 8
  %7 = getelementptr inbounds nuw i8, ptr %0, i64 32
  %8 = load ptr, ptr %7, align 8, !tbaa !4
  call void @llvm.lifetime.start.p0(i64 8, ptr nonnull %6) #8
  %9 = getelementptr inbounds nuw i8, ptr %8, i64 16
  tail call void @av_bprint_init_for_buffer(ptr noundef nonnull %9, ptr noundef %1, i32 noundef %2) #8
  %10 = getelementptr inbounds nuw i8, ptr %3, i64 12
  %11 = load i32, ptr %10, align 4, !tbaa !34
  %.not34 = icmp eq i32 %11, 0
  br i1 %.not34, label %._crit_edge, label %.lr.ph

.lr.ph:                                           ; preds = %5
  %12 = getelementptr inbounds nuw i8, ptr %3, i64 16
  %13 = getelementptr inbounds nuw i8, ptr %8, i64 8
  %14 = getelementptr inbounds nuw i8, ptr %8, i64 1108
  %15 = getelementptr inbounds nuw i8, ptr %0, i64 24
  br label %16

16:                                               ; preds = %.lr.ph, %33
  %indvars.iv = phi i64 [ 0, %.lr.ph ], [ %indvars.iv.next, %33 ]
  %17 = load ptr, ptr %12, align 8, !tbaa !38
  %18 = getelementptr inbounds nuw ptr, ptr %17, i64 %indvars.iv
  %19 = load ptr, ptr %18, align 8, !tbaa !39
  %20 = getelementptr inbounds nuw i8, ptr %19, i64 76
  %21 = load i32, ptr %20, align 4, !tbaa !41
  %.not27 = icmp eq i32 %21, 3
  br i1 %.not27, label %22, label %.thread.sink.split

22:                                               ; preds = %16
  %23 = getelementptr inbounds nuw i8, ptr %19, i64 88
  %24 = load ptr, ptr %23, align 8, !tbaa !43
  %25 = load ptr, ptr %13, align 8, !tbaa !33
  %26 = call ptr @ff_ass_split_dialog(ptr noundef %25, ptr noundef %24) #8
  store ptr %26, ptr %6, align 8, !tbaa !44
  %.not28 = icmp eq ptr %26, null
  br i1 %.not28, label %.thread, label %27

27:                                               ; preds = %22
  store i32 0, ptr %14, align 4, !tbaa !45
  %28 = load i32, ptr %15, align 8, !tbaa !46
  %29 = icmp eq i32 %28, 94225
  br i1 %29, label %30, label %33

30:                                               ; preds = %27
  %31 = getelementptr inbounds nuw i8, ptr %26, i64 16
  %32 = load ptr, ptr %31, align 8, !tbaa !47
  call fastcc void @srt_style_apply(ptr noundef nonnull %8, ptr noundef %32)
  %.pre = load ptr, ptr %6, align 8, !tbaa !44
  br label %33

33:                                               ; preds = %30, %27
  %34 = phi ptr [ %.pre, %30 ], [ %26, %27 ]
  %35 = getelementptr inbounds nuw i8, ptr %34, i64 56
  %36 = load ptr, ptr %35, align 8, !tbaa !49
  %37 = call i32 @ff_ass_split_override_codes(ptr noundef %4, ptr noundef nonnull %8, ptr noundef %36) #8
  call void @ff_ass_free_dialog(ptr noundef nonnull %6) #8
  %indvars.iv.next = add nuw nsw i64 %indvars.iv, 1
  %38 = load i32, ptr %10, align 4, !tbaa !34
  %39 = zext i32 %38 to i64
  %40 = icmp samesign ult i64 %indvars.iv.next, %39
  br i1 %40, label %16, label %._crit_edge, !llvm.loop !50

._crit_edge:                                      ; preds = %33, %5
  %41 = getelementptr i8, ptr %8, i64 24
  %42 = load i32, ptr %41, align 8, !tbaa !52
  %.not = icmp eq i32 %42, 0
  br i1 %.not, label %.thread, label %43

43:                                               ; preds = %._crit_edge
  %44 = getelementptr i8, ptr %8, i64 28
  %.val29 = load i32, ptr %44, align 4, !tbaa !53
  %.not32 = icmp ult i32 %42, %.val29
  br i1 %.not32, label %.thread, label %.thread.sink.split

.thread.sink.split:                               ; preds = %16, %43
  %.str.5.sink = phi ptr [ @.str.6, %43 ], [ @.str.5, %16 ]
  %.2.ph = phi i32 [ -1397118274, %43 ], [ -22, %16 ]
  call void (ptr, i32, ptr, ...) @av_log(ptr noundef nonnull %0, i32 noundef 16, ptr noundef nonnull %.str.5.sink) #8
  br label %.thread

.thread:                                          ; preds = %22, %.thread.sink.split, %43, %._crit_edge
  %.2 = phi i32 [ 0, %._crit_edge ], [ %42, %43 ], [ %.2.ph, %.thread.sink.split ], [ -12, %22 ]
  call void @llvm.lifetime.end.p0(i64 8, ptr nonnull %6) #8
  ret i32 %.2
}